; Function Attrs: nounwind uwtable
define range(i32 -1, 1) i32 @H5Z_set_local_direct(ptr nocapture noundef readonly %0) local_unnamed_addr #0 {
  %2 = tail call fastcc i32 @H5Z__prelude_callback(ptr noundef %0, i64 noundef -1, i64 noundef -1, i64 noundef -1, i32 noundef 1)
  %3 = icmp slt i32 %2, 0
  br i1 %3, label %4, label %8

4:                                                ; preds = %1
  %5 = load i64, ptr @H5E_PLINE_g, align 8
  %6 = load i64, ptr @H5E_SETLOCAL_g, align 8
  %7 = tail call i32 (ptr, ptr, i32, i64, i64, ptr, ...) @H5E_printf_stack(ptr noundef nonnull @.str, ptr noundef nonnull @__func__.H5Z_set_local_direct, i32 noundef 1032, i64 noundef %5, i64 noundef %6, ptr noundef nonnull @.str.22) #9
  br label %8

8:                                                ; preds = %1, %4
  %.0 = phi i32 [ -1, %4 ], [ 0, %1 ]
  ret i32 %.0
}